; Function Attrs: mustprogress uwtable
define hidden void @_ZNK4cvc58internal19SharedTermsDatabase7explainENS0_12NodeTemplateILb0EEE(ptr noalias sret(%"class.cvc5::internal::TrustNode") align 8 %agg.result, ptr nocapture noundef nonnull readonly align 8 dereferenceable(592) %this, ptr nocapture noundef readonly %literal) local_unnamed_addr #3 align 2 personality ptr @__gxx_personality_v0 {
entry:
  %agg.tmp = alloca %"class.cvc5::internal::NodeTemplate", align 8
  %exp = alloca %"class.cvc5::internal::NodeTemplate", align 8
  %agg.tmp3 = alloca %"class.cvc5::internal::NodeTemplate.571", align 8
  %agg.tmp6 = alloca %"class.cvc5::internal::NodeTemplate.571", align 8
  %agg.tmp9 = alloca %"class.cvc5::internal::NodeTemplate", align 8
  %d_pfee = getelementptr inbounds i8, ptr %this, i64 568
  %0 = load ptr, ptr %d_pfee, align 8
  %cmp.not = icmp eq ptr %0, null
  br i1 %cmp.not, label %if.end, label %if.then

if.then:                                          ; preds = %entry
  %1 = load ptr, ptr %literal, align 8
  store ptr %1, ptr %agg.tmp, align 8
  %bf.load.i.i = load i64, ptr %1, align 8
  %bf.lshr.i.i = lshr i64 %bf.load.i.i, 40
  %2 = trunc i64 %bf.lshr.i.i to i32
  %bf.cast.i.i = and i32 %2, 1048575
  %cmp.i.i = icmp ult i32 %bf.cast.i.i, 1048574
  br i1 %cmp.i.i, label %if.then.i.i, label %if.else.i.i

if.then.i.i:                                      ; preds = %if.then
  %bf.value.i.i = add i64 %bf.load.i.i, 1099511627776
  %bf.shl.i.i = and i64 %bf.value.i.i, 1152920405095219200
  %bf.clear7.i.i = and i64 %bf.load.i.i, -1152920405095219201
  %bf.set.i.i = or disjoint i64 %bf.shl.i.i, %bf.clear7.i.i
  store i64 %bf.set.i.i, ptr %1, align 8
  br label %_ZN4cvc58internal12NodeTemplateILb1EEC2ERKNS1_ILb0EEE.exit

if.else.i.i:                                      ; preds = %if.then
  %cmp12.i.i = icmp eq i32 %bf.cast.i.i, 1048574
  br i1 %cmp12.i.i, label %if.then13.i.i, label %_ZN4cvc58internal12NodeTemplateILb1EEC2ERKNS1_ILb0EEE.exit

if.then13.i.i:                                    ; preds = %if.else.i.i
  %bf.set23.i.i = or i64 %bf.load.i.i, 1152920405095219200
  store i64 %bf.set23.i.i, ptr %1, align 8
  tail call void @_ZN4cvc58internal4expr9NodeValue20markRefCountMaxedOutEv(ptr noundef nonnull align 8 dereferenceable(16) %1)
  br label %_ZN4cvc58internal12NodeTemplateILb1EEC2ERKNS1_ILb0EEE.exit

_ZN4cvc58internal12NodeTemplateILb1EEC2ERKNS1_ILb0EEE.exit: ; preds = %if.then.i.i, %if.else.i.i, %if.then13.i.i
  invoke void @_ZN4cvc58internal6theory2eq13ProofEqEngine7explainENS0_12NodeTemplateILb1EEE(ptr sret(%"class.cvc5::internal::TrustNode") align 8 %agg.result, ptr noundef nonnull align 8 dereferenceable(976) %0, ptr noundef nonnull %agg.tmp)
          to label %invoke.cont unwind label %lpad

invoke.cont:                                      ; preds = %_ZN4cvc58internal12NodeTemplateILb1EEC2ERKNS1_ILb0EEE.exit
  %3 = load ptr, ptr %agg.tmp, align 8
  %bf.load.i.i4 = load i64, ptr %3, align 8
  %4 = and i64 %bf.load.i.i4, 1152920405095219200
  %cmp.not.i.i = icmp eq i64 %4, 1152920405095219200
  br i1 %cmp.not.i.i, label %return, label %if.then.i.i5

if.then.i.i5:                                     ; preds = %invoke.cont
  %bf.value.i.i6 = add i64 %bf.load.i.i4, 1152920405095219200
  %bf.shl.i.i7 = and i64 %bf.value.i.i6, 1152920405095219200
  %bf.clear7.i.i8 = and i64 %bf.load.i.i4, -1152920405095219201
  %bf.set.i.i9 = or disjoint i64 %bf.shl.i.i7, %bf.clear7.i.i8
  store i64 %bf.set.i.i9, ptr %3, align 8
  %cmp12.i.i10 = icmp eq i64 %bf.shl.i.i7, 0
  br i1 %cmp12.i.i10, label %if.then13.i.i11, label %return

if.then13.i.i11:                                  ; preds = %if.then.i.i5
  invoke void @_ZN4cvc58internal4expr9NodeValue15markForDeletionEv(ptr noundef nonnull align 8 dereferenceable(16) %3)
          to label %return unwind label %terminate.lpad.i

terminate.lpad.i:                                 ; preds = %if.then13.i.i11
  %5 = landingpad { ptr, i32 }
          catch ptr null
  %6 = extractvalue { ptr, i32 } %5, 0
  call void @__clang_call_terminate(ptr %6) #23
  unreachable

lpad:                                             ; preds = %_ZN4cvc58internal12NodeTemplateILb1EEC2ERKNS1_ILb0EEE.exit
  %7 = landingpad { ptr, i32 }
          cleanup
  br label %eh.resume

if.end:                                           ; preds = %entry
  %d_equalityEngine = getelementptr inbounds i8, ptr %this, i64 552
  %8 = load ptr, ptr %d_equalityEngine, align 8
  %9 = load ptr, ptr %literal, align 8
  store ptr %9, ptr %agg.tmp3, align 8
  call void @_ZNK4cvc58internal6theory2eq14EqualityEngine12mkExplainLitENS0_12NodeTemplateILb0EEE(ptr nonnull sret(%"class.cvc5::internal::NodeTemplate") align 8 %exp, ptr noundef nonnull align 8 dereferenceable(1784) %8, ptr noundef nonnull %agg.tmp3)
  %10 = load ptr, ptr %literal, align 8
  store ptr %10, ptr %agg.tmp6, align 8
  %11 = load ptr, ptr %exp, align 8
  store ptr %11, ptr %agg.tmp9, align 8
  %bf.load.i.i12 = load i64, ptr %11, align 8
  %bf.lshr.i.i13 = lshr i64 %bf.load.i.i12, 40
  %12 = trunc i64 %bf.lshr.i.i13 to i32
  %bf.cast.i.i14 = and i32 %12, 1048575
  %cmp.i.i15 = icmp ult i32 %bf.cast.i.i14, 1048574
  br i1 %cmp.i.i15, label %if.then.i.i20, label %if.else.i.i16

if.then.i.i20:                                    ; preds = %if.end
  %bf.value.i.i21 = add i64 %bf.load.i.i12, 1099511627776
  %bf.shl.i.i22 = and i64 %bf.value.i.i21, 1152920405095219200
  %bf.clear7.i.i23 = and i64 %bf.load.i.i12, -1152920405095219201
  %bf.set.i.i24 = or disjoint i64 %bf.shl.i.i22, %bf.clear7.i.i23
  store i64 %bf.set.i.i24, ptr %11, align 8
  br label %invoke.cont11

if.else.i.i16:                                    ; preds = %if.end
  %cmp12.i.i17 = icmp eq i32 %bf.cast.i.i14, 1048574
  br i1 %cmp12.i.i17, label %if.then13.i.i18, label %invoke.cont11

if.then13.i.i18:                                  ; preds = %if.else.i.i16
  %bf.set23.i.i19 = or i64 %bf.load.i.i12, 1152920405095219200
  store i64 %bf.set23.i.i19, ptr %11, align 8
  invoke void @_ZN4cvc58internal4expr9NodeValue20markRefCountMaxedOutEv(ptr noundef nonnull align 8 dereferenceable(16) %11)
          to label %invoke.cont11 unwind label %lpad10

invoke.cont11:                                    ; preds = %if.else.i.i16, %if.then.i.i20, %if.then13.i.i18
  invoke void @_ZN4cvc58internal9TrustNode14mkTrustPropExpENS0_12NodeTemplateILb0EEENS2_ILb1EEEPNS0_14ProofGeneratorE(ptr sret(%"class.cvc5::internal::TrustNode") align 8 %agg.result, ptr noundef nonnull %agg.tmp6, ptr noundef nonnull %agg.tmp9, ptr noundef null)
          to label %invoke.cont13 unwind label %lpad12

invoke.cont13:                                    ; preds = %invoke.cont11
  %13 = load ptr, ptr %agg.tmp9, align 8
  %bf.load.i.i25 = load i64, ptr %13, align 8
  %14 = and i64 %bf.load.i.i25, 1152920405095219200
  %cmp.not.i.i26 = icmp eq i64 %14, 1152920405095219200
  br i1 %cmp.not.i.i26, label %_ZN4cvc58internal12NodeTemplateILb1EED2Ev.exit35, label %if.then.i.i27

if.then.i.i27:                                    ; preds = %invoke.cont13
  %bf.value.i.i28 = add i64 %bf.load.i.i25, 1152920405095219200
  %bf.shl.i.i29 = and i64 %bf.value.i.i28, 1152920405095219200
  %bf.clear7.i.i30 = and i64 %bf.load.i.i25, -1152920405095219201
  %bf.set.i.i31 = or disjoint i64 %bf.shl.i.i29, %bf.clear7.i.i30
  store i64 %bf.set.i.i31, ptr %13, align 8
  %cmp12.i.i32 = icmp eq i64 %bf.shl.i.i29, 0
  br i1 %cmp12.i.i32, label %if.then13.i.i33, label %_ZN4cvc58internal12NodeTemplateILb1EED2Ev.exit35

if.then13.i.i33:                                  ; preds = %if.then.i.i27
  invoke void @_ZN4cvc58internal4expr9NodeValue15markForDeletionEv(ptr noundef nonnull align 8 dereferenceable(16) %13)
          to label %_ZN4cvc58internal12NodeTemplateILb1EED2Ev.exit35 unwind label %terminate.lpad.i34

terminate.lpad.i34:                               ; preds = %if.then13.i.i33
  %15 = landingpad { ptr, i32 }
          catch ptr null
  %16 = extractvalue { ptr, i32 } %15, 0
  call void @__clang_call_terminate(ptr %16) #23
  unreachable

_ZN4cvc58internal12NodeTemplateILb1EED2Ev.exit35: ; preds = %invoke.cont13, %if.then.i.i27, %if.then13.i.i33
  %17 = load ptr, ptr %exp, align 8
  %bf.load.i.i36 = load i64, ptr %17, align 8
  %18 = and i64 %bf.load.i.i36, 1152920405095219200
  %cmp.not.i.i37 = icmp eq i64 %18, 1152920405095219200
  br i1 %cmp.not.i.i37, label %return, label %if.then.i.i38

if.then.i.i38:                                    ; preds = %_ZN4cvc58internal12NodeTemplateILb1EED2Ev.exit35
  %bf.value.i.i39 = add i64 %bf.load.i.i36, 1152920405095219200
  %bf.shl.i.i40 = and i64 %bf.value.i.i39, 1152920405095219200
  %bf.clear7.i.i41 = and i64 %bf.load.i.i36, -1152920405095219201
  %bf.set.i.i42 = or disjoint i64 %bf.shl.i.i40, %bf.clear7.i.i41
  store i64 %bf.set.i.i42, ptr %17, align 8
  %cmp12.i.i43 = icmp eq i64 %bf.shl.i.i40, 0
  br i1 %cmp12.i.i43, label %if.then13.i.i44, label %return

if.then13.i.i44:                                  ; preds = %if.then.i.i38
  invoke void @_ZN4cvc58internal4expr9NodeValue15markForDeletionEv(ptr noundef nonnull align 8 dereferenceable(16) %17)
          to label %return unwind label %terminate.lpad.i45

terminate.lpad.i45:                               ; preds = %if.then13.i.i44
  %19 = landingpad { ptr, i32 }
          catch ptr null
  %20 = extractvalue { ptr, i32 } %19, 0
  call void @__clang_call_terminate(ptr %20) #23
  unreachable

lpad10:                                           ; preds = %if.then13.i.i18
  %21 = landingpad { ptr, i32 }
          cleanup
  br label %eh.resume

lpad12:                                           ; preds = %invoke.cont11
  %22 = landingpad { ptr, i32 }
          cleanup
  call void @_ZN4cvc58internal12NodeTemplateILb1EED2Ev(ptr noundef nonnull align 8 dereferenceable(8) %agg.tmp9) #20
  br label %eh.resume

return:                                           ; preds = %if.then13.i.i44, %if.then.i.i38, %_ZN4cvc58internal12NodeTemplateILb1EED2Ev.exit35, %if.then13.i.i11, %if.then.i.i5, %invoke.cont
  ret void

eh.resume:                                        ; preds = %lpad10, %lpad12, %lpad
  %exp.sink = phi ptr [ %agg.tmp, %lpad ], [ %exp, %lpad12 ], [ %exp, %lpad10 ]
  %.pn2 = phi { ptr, i32 } [ %7, %lpad ], [ %22, %lpad12 ], [ %21, %lpad10 ]
  call void @_ZN4cvc58internal12NodeTemplateILb1EED2Ev(ptr noundef nonnull align 8 dereferenceable(8) %exp.sink) #20
  resume { ptr, i32 } %.pn2
}